	.file	"record-attivazione.c"
	.intel_syntax noprefix
	.text
	.globl	R
	.type	R, @function
R:
.LFB0:
	.cfi_startproc
	push	rbp
	.cfi_def_cfa_offset 16
	.cfi_offset 6, -16
	mov	rbp, rsp
	.cfi_def_cfa_register 6
	mov	DWORD PTR -20[rbp], edi
	mov	DWORD PTR -4[rbp], 2
	mov	edx, DWORD PTR -4[rbp]
	mov	eax, DWORD PTR -20[rbp]
	add	eax, edx
	mov	DWORD PTR -8[rbp], eax
	mov	eax, DWORD PTR -8[rbp]
	pop	rbp
	.cfi_def_cfa 7, 8
	ret
	.cfi_endproc
.LFE0:
	.size	R, .-R
	.globl	Q
	.type	Q, @function
Q:
.LFB1:
	.cfi_startproc
	push	rbp
	.cfi_def_cfa_offset 16
	.cfi_offset 6, -16
	mov	rbp, rsp
	.cfi_def_cfa_register 6
	sub	rsp, 24
	mov	DWORD PTR -20[rbp], edi
	mov	eax, DWORD PTR -20[rbp]
	mov	edi, eax
	call	R
	add	eax, eax
	mov	DWORD PTR -4[rbp], eax
	mov	eax, DWORD PTR -4[rbp]
	leave
	.cfi_def_cfa 7, 8
	ret
	.cfi_endproc
.LFE1:
	.size	Q, .-Q
	.globl	P
	.type	P, @function
P:
.LFB2:
	.cfi_startproc
	push	rbp
	.cfi_def_cfa_offset 16
	.cfi_offset 6, -16
	mov	rbp, rsp
	.cfi_def_cfa_register 6
	sub	rsp, 16
	mov	DWORD PTR -4[rbp], 10
	mov	eax, DWORD PTR -4[rbp]
	mov	edi, eax
	call	Q
	mov	DWORD PTR -8[rbp], eax
	mov	eax, DWORD PTR -8[rbp]
	leave
	.cfi_def_cfa 7, 8
	ret
	.cfi_endproc
.LFE2:
	.size	P, .-P
	.globl	main
	.type	main, @function
main:
.LFB3:
	.cfi_startproc
	push	rbp
	.cfi_def_cfa_offset 16
	.cfi_offset 6, -16
	mov	rbp, rsp
	.cfi_def_cfa_register 6
	sub	rsp, 16
	mov	DWORD PTR -4[rbp], 1
	call	P
	mov	edx, eax
	mov	eax, DWORD PTR -4[rbp]
	add	eax, edx
	mov	DWORD PTR -8[rbp], eax
	mov	eax, 0
	leave
	.cfi_def_cfa 7, 8
	ret
	.cfi_endproc
.LFE3:
	.size	main, .-main
	.ident	"GCC: (Debian 8.3.0-6) 8.3.0"
	.section	.note.GNU-stack,"",@progbits
